target datalayout = "e-m:e-p270:32:32-p271:32:32-p272:64:64-i64:64-i128:128-f80:128-n8:16:32:64-S128"
target triple = "x86_64-unknown-linux-gnu"

%struct.aiString = type { i32, [1024 x i8] }
%struct.aiMesh = type { i32, i32, i32, ptr, ptr, ptr, ptr, [8 x ptr], [8 x ptr], [8 x i32], ptr, i32, ptr, i32, %struct.aiString, i32, ptr, i32, %struct.aiAABB, ptr }
%struct.aiAABB = type { %class.aiVector3t, %class.aiVector3t }
%class.aiVector3t = type { float, float, float }

; Function Attrs: mustprogress nounwind uwtable
define hidden noundef zeroext i1 @_ZN6Assimp22DropFaceNormalsProcess19DropMeshFaceNormalsEP6aiMesh(ptr noundef nonnull align 8 dereferenceable(24) %this, ptr noundef %mesh) #0 align 2 {
entry:
  %retval = alloca i1, align 1
  %this.addr = alloca ptr, align 8
  %mesh.addr = alloca ptr, align 8
  store ptr %this, ptr %this.addr, align 8
  store ptr %mesh, ptr %mesh.addr, align 8
  %0 = load ptr, ptr %mesh.addr, align 8
  %mNormals = getelementptr inbounds %struct.aiMesh, ptr %0, i32 0, i32 4
  %1 = load ptr, ptr %mNormals, align 8
  %cmp = icmp eq ptr null, %1
  br i1 %cmp, label %if.then, label %if.end

if.then:                                          ; preds = %entry
  store i1 false, ptr %retval, align 1
  br label %return

if.end:                                           ; preds = %entry
  %2 = load ptr, ptr %mesh.addr, align 8
  %mNormals2 = getelementptr inbounds %struct.aiMesh, ptr %2, i32 0, i32 4
  %3 = load ptr, ptr %mNormals2, align 8
  %isnull = icmp eq ptr %3, null
  br i1 %isnull, label %delete.end, label %delete.notnull

delete.notnull:                                   ; preds = %if.end
  call void @_ZdaPv(ptr noundef %3) #9
  br label %delete.end

delete.end:                                       ; preds = %delete.notnull, %if.end
  %4 = load ptr, ptr %mesh.addr, align 8
  %mNormals3 = getelementptr inbounds %struct.aiMesh, ptr %4, i32 0, i32 4
  store ptr null, ptr %mNormals3, align 8
  store i1 true, ptr %retval, align 1
  br label %return

return:                                           ; preds = %delete.end, %if.then
  %5 = load i1, ptr %retval, align 1
  ret i1 %5
}