; Function Attrs: mustprogress nounwind uwtable
define hidden noundef zeroext i1 @_ZN6Assimp22DropFaceNormalsProcess19DropMeshFaceNormalsEP6aiMesh(ptr nocapture noundef nonnull readnone align 8 dereferenceable(24) %this, ptr nocapture noundef %mesh) local_unnamed_addr #3 align 2 {
entry:
  %mNormals = getelementptr inbounds i8, ptr %mesh, i64 24
  %0 = load ptr, ptr %mNormals, align 8
  %cmp = icmp ne ptr %0, null
  br i1 %cmp, label %delete.notnull, label %return

delete.notnull:                                   ; preds = %entry
  tail call void @_ZdaPv(ptr noundef nonnull %0) #9
  store ptr null, ptr %mNormals, align 8
  br label %return

return:                                           ; preds = %entry, %delete.notnull
  ret i1 %cmp
}